target datalayout = "e-m:e-p270:32:32-p271:32:32-p272:64:64-i64:64-i128:128-f80:128-n8:16:32:64-S128"
target triple = "x86_64-unknown-linux-gnu"

%"class.proxygen::SimpleTimeoutClock" = type { %"class.proxygen::AsyncTimeoutSet::TimeoutClock" }
%"class.proxygen::AsyncTimeoutSet::TimeoutClock" = type { ptr }
%"class.std::shared_ptr" = type { %"class.std::__shared_ptr" }
%"class.std::__shared_ptr" = type { ptr, %"class.std::__shared_count" }
%"class.std::__shared_count" = type { ptr }
%"class.std::chrono::duration" = type { i64 }
%"class.proxygen::AsyncTimeoutSet" = type <{ %"class.folly::AsyncTimeout", %"class.folly::DelayedDestruction.base", [3 x i8], ptr, ptr, ptr, %"class.std::chrono::duration", %"class.std::chrono::duration", i8, [7 x i8] }>
%"class.folly::AsyncTimeout" = type { ptr, %"class.folly::EventBaseEvent", ptr, %"class.std::shared_ptr" }
%"class.folly::EventBaseEvent" = type { %struct.event, ptr, ptr, ptr, %"struct.folly::EventCallback" }
%struct.event = type { %struct.event_callback, %union.anon.0, i32, i16, i16, ptr, %union.anon.2, %struct.timeval }
%struct.event_callback = type { %struct.anon, i16, i8, i8, %union.anon, ptr }
%struct.anon = type { ptr, ptr }
%union.anon = type { ptr }
%union.anon.0 = type { %struct.anon.1 }
%struct.anon.1 = type { ptr, ptr }
%union.anon.2 = type { %struct.anon.3 }
%struct.anon.3 = type { %struct.anon.4, %struct.timeval }
%struct.anon.4 = type { ptr, ptr }
%struct.timeval = type { i64, i64 }
%"struct.folly::EventCallback" = type { i32, %union.anon.7 }
%union.anon.7 = type { ptr }
%"class.folly::DelayedDestruction.base" = type { %"class.folly::DelayedDestructionBase.base", i8 }
%"class.folly::DelayedDestructionBase.base" = type <{ ptr, i32 }>
%"class.folly::DelayedDestruction" = type { %"class.folly::DelayedDestructionBase.base", i8, [3 x i8] }
%"class.folly::DelayedDestructionBase" = type <{ ptr, i32, [4 x i8] }>

@_ZZN8proxygen15getTimeoutClockEvE12timeoutClock = internal global %"class.proxygen::SimpleTimeoutClock" zeroinitializer, align 8
@_ZGVZN8proxygen15getTimeoutClockEvE12timeoutClock = internal global i64 0, align 8
@__dso_handle = external hidden global i8
@_ZTVN5folly18DelayedDestructionE = external unnamed_addr constant { [6 x ptr] }, align 8
@_ZTVN5folly22DelayedDestructionBaseE = linkonce_odr unnamed_addr constant { [5 x ptr] } { [5 x ptr] [ptr null, ptr @_ZTIN5folly22DelayedDestructionBaseE, ptr @_ZN5folly22DelayedDestructionBaseD2Ev, ptr @_ZN5folly22DelayedDestructionBaseD0Ev, ptr @__cxa_pure_virtual] }, comdat, align 8

; Function Attrs: mustprogress nounwind uwtable
define linkonce_odr void @_ZN8proxygen15AsyncTimeoutSet12TimeoutClockC2Ev(ptr noundef nonnull align 8 dereferenceable(8) %this) unnamed_addr #2 comdat align 2 {
entry:
  %this.addr = alloca ptr, align 8
  store ptr %this, ptr %this.addr, align 8
  %this1 = load ptr, ptr %this.addr, align 8
  store ptr getelementptr inbounds ({ [5 x ptr] }, ptr @_ZTVN8proxygen15AsyncTimeoutSet12TimeoutClockE, i32 0, i32 0, i32 2), ptr %this1, align 8
  ret void
}

; Function Attrs: mustprogress uwtable
define linkonce_odr void @_ZN8proxygen18SimpleTimeoutClockC2Ev(ptr noundef nonnull align 8 dereferenceable(8) %this) unnamed_addr #0 comdat align 2 {
entry:
  %this.addr = alloca ptr, align 8
  store ptr %this, ptr %this.addr, align 8
  %this1 = load ptr, ptr %this.addr, align 8
  call void @_ZN8proxygen15AsyncTimeoutSet12TimeoutClockC2Ev(ptr noundef nonnull align 8 dereferenceable(8) %this1)
  store ptr getelementptr inbounds ({ [5 x ptr] }, ptr @_ZTVN8proxygen18SimpleTimeoutClockE, i32 0, i32 0, i32 2), ptr %this1, align 8
  ret void
}

; Function Attrs: mustprogress nounwind uwtable
define linkonce_odr void @_ZN5folly22DelayedDestructionBaseC2Ev(ptr noundef nonnull align 8 dereferenceable(12) %this) unnamed_addr #2 comdat align 2 {
entry:
  %this.addr = alloca ptr, align 8
  store ptr %this, ptr %this.addr, align 8
  %this1 = load ptr, ptr %this.addr, align 8
  store ptr getelementptr inbounds ({ [5 x ptr] }, ptr @_ZTVN5folly22DelayedDestructionBaseE, i32 0, i32 0, i32 2), ptr %this1, align 8
  %guardCount_ = getelementptr inbounds %"class.folly::DelayedDestructionBase", ptr %this1, i32 0, i32 1
  store i32 0, ptr %guardCount_, align 8
  ret void
}

; Function Attrs: mustprogress uwtable
define noundef nonnull align 8 dereferenceable(8) ptr @_ZN8proxygen15getTimeoutClockEv() #0 personality ptr @__gxx_personality_v0 {
entry:
  %exn.slot = alloca ptr, align 8
  %ehselector.slot = alloca i32, align 4
  %0 = load atomic i8, ptr @_ZGVZN8proxygen15getTimeoutClockEvE12timeoutClock acquire, align 8
  %guard.uninitialized = icmp eq i8 %0, 0
  br i1 %guard.uninitialized, label %init.check, label %init.end, !prof !4

init.check:                                       ; preds = %entry
  %1 = call i32 @__cxa_guard_acquire(ptr @_ZGVZN8proxygen15getTimeoutClockEvE12timeoutClock) #1
  %tobool = icmp ne i32 %1, 0
  br i1 %tobool, label %init, label %init.end

init:                                             ; preds = %init.check
  invoke void @_ZN8proxygen18SimpleTimeoutClockC2Ev(ptr noundef nonnull align 8 dereferenceable(8) @_ZZN8proxygen15getTimeoutClockEvE12timeoutClock)
          to label %invoke.cont unwind label %lpad

invoke.cont:                                      ; preds = %init
  %2 = call i32 @__cxa_atexit(ptr @_ZN8proxygen18SimpleTimeoutClockD2Ev, ptr @_ZZN8proxygen15getTimeoutClockEvE12timeoutClock, ptr @__dso_handle) #1
  call void @__cxa_guard_release(ptr @_ZGVZN8proxygen15getTimeoutClockEvE12timeoutClock) #1
  br label %init.end

init.end:                                         ; preds = %invoke.cont, %init.check, %entry
  ret ptr @_ZZN8proxygen15getTimeoutClockEvE12timeoutClock

lpad:                                             ; preds = %init
  %3 = landingpad { ptr, i32 }
          cleanup
  %4 = extractvalue { ptr, i32 } %3, 0
  store ptr %4, ptr %exn.slot, align 8
  %5 = extractvalue { ptr, i32 } %3, 1
  store i32 %5, ptr %ehselector.slot, align 4
  call void @__cxa_guard_abort(ptr @_ZGVZN8proxygen15getTimeoutClockEvE12timeoutClock) #1
  br label %eh.resume

eh.resume:                                        ; preds = %lpad
  %exn = load ptr, ptr %exn.slot, align 8
  %sel = load i32, ptr %ehselector.slot, align 4
  %lpad.val = insertvalue { ptr, i32 } poison, ptr %exn, 0
  %lpad.val1 = insertvalue { ptr, i32 } %lpad.val, i32 %sel, 1
  resume { ptr, i32 } %lpad.val1
}

; Function Attrs: mustprogress uwtable
define linkonce_odr void @_ZN5folly18DelayedDestructionC2Ev(ptr noundef nonnull align 8 dereferenceable(13) %this) unnamed_addr #0 comdat align 2 {
entry:
  %this.addr = alloca ptr, align 8
  store ptr %this, ptr %this.addr, align 8
  %this1 = load ptr, ptr %this.addr, align 8
  call void @_ZN5folly22DelayedDestructionBaseC2Ev(ptr noundef nonnull align 8 dereferenceable(12) %this1)
  store ptr getelementptr inbounds ({ [6 x ptr] }, ptr @_ZTVN5folly18DelayedDestructionE, i32 0, i32 0, i32 2), ptr %this1, align 8
  %destroyPending_ = getelementptr inbounds %"class.folly::DelayedDestruction", ptr %this1, i32 0, i32 1
  store i8 0, ptr %destroyPending_, align 4
  ret void
}

; Function Attrs: mustprogress uwtable
define void @_ZN8proxygen15AsyncTimeoutSetC2EPN5folly14TimeoutManagerENS2_12InternalEnumENSt6chrono8durationIlSt5ratioILl1ELl1000EEEES9_(ptr noundef nonnull align 8 dereferenceable(249) %this, ptr noundef %timeoutManager, i32 noundef %internal, i64 %intervalMS.coerce, i64 %atMostEveryN.coerce) unnamed_addr #0 align 2 personality ptr @__gxx_personality_v0 {
entry:
  %intervalMS = alloca %"class.std::chrono::duration", align 8
  %atMostEveryN = alloca %"class.std::chrono::duration", align 8
  %this.addr = alloca ptr, align 8
  %timeoutManager.addr = alloca ptr, align 8
  %internal.addr = alloca i32, align 4
  %exn.slot = alloca ptr, align 8
  %ehselector.slot = alloca i32, align 4
  %coerce.dive = getelementptr inbounds %"class.std::chrono::duration", ptr %intervalMS, i32 0, i32 0
  store i64 %intervalMS.coerce, ptr %coerce.dive, align 8
  %coerce.dive1 = getelementptr inbounds %"class.std::chrono::duration", ptr %atMostEveryN, i32 0, i32 0
  store i64 %atMostEveryN.coerce, ptr %coerce.dive1, align 8
  store ptr %this, ptr %this.addr, align 8
  store ptr %timeoutManager, ptr %timeoutManager.addr, align 8
  store i32 %internal, ptr %internal.addr, align 4
  %this2 = load ptr, ptr %this.addr, align 8
  %0 = load ptr, ptr %timeoutManager.addr, align 8
  %1 = load i32, ptr %internal.addr, align 4
  call void @_ZN5folly12AsyncTimeoutC2EPNS_14TimeoutManagerENS1_12InternalEnumE(ptr noundef nonnull align 8 dereferenceable(192) %this2, ptr noundef %0, i32 noundef %1)
  %2 = getelementptr inbounds i8, ptr %this2, i64 192
  invoke void @_ZN5folly18DelayedDestructionC2Ev(ptr noundef nonnull align 8 dereferenceable(13) %2)
          to label %invoke.cont unwind label %lpad

invoke.cont:                                      ; preds = %entry
  store ptr getelementptr inbounds ({ [6 x ptr], [6 x ptr] }, ptr @_ZTVN8proxygen15AsyncTimeoutSetE, i32 0, i32 0, i32 2), ptr %this2, align 8
  %add.ptr = getelementptr inbounds i8, ptr %this2, i64 192
  store ptr getelementptr inbounds ({ [6 x ptr], [6 x ptr] }, ptr @_ZTVN8proxygen15AsyncTimeoutSetE, i32 0, i32 1, i32 2), ptr %add.ptr, align 8
  %timeoutClock_ = getelementptr inbounds %"class.proxygen::AsyncTimeoutSet", ptr %this2, i32 0, i32 3
  %call = invoke noundef nonnull align 8 dereferenceable(8) ptr @_ZN8proxygen15getTimeoutClockEv()
          to label %invoke.cont4 unwind label %lpad3

invoke.cont4:                                     ; preds = %invoke.cont
  store ptr %call, ptr %timeoutClock_, align 8
  %head_ = getelementptr inbounds %"class.proxygen::AsyncTimeoutSet", ptr %this2, i32 0, i32 4
  store ptr null, ptr %head_, align 8
  %tail_ = getelementptr inbounds %"class.proxygen::AsyncTimeoutSet", ptr %this2, i32 0, i32 5
  store ptr null, ptr %tail_, align 8
  %interval_ = getelementptr inbounds %"class.proxygen::AsyncTimeoutSet", ptr %this2, i32 0, i32 6
  call void @llvm.memcpy.p0.p0.i64(ptr align 8 %interval_, ptr align 8 %intervalMS, i64 8, i1 false)
  %atMostEveryN_ = getelementptr inbounds %"class.proxygen::AsyncTimeoutSet", ptr %this2, i32 0, i32 7
  call void @llvm.memcpy.p0.p0.i64(ptr align 8 %atMostEveryN_, ptr align 8 %atMostEveryN, i64 8, i1 false)
  %inTimeoutExpired_ = getelementptr inbounds %"class.proxygen::AsyncTimeoutSet", ptr %this2, i32 0, i32 8
  store i8 0, ptr %inTimeoutExpired_, align 8
  ret void

lpad:                                             ; preds = %entry
  %3 = landingpad { ptr, i32 }
          cleanup
  %4 = extractvalue { ptr, i32 } %3, 0
  store ptr %4, ptr %exn.slot, align 8
  %5 = extractvalue { ptr, i32 } %3, 1
  store i32 %5, ptr %ehselector.slot, align 4
  br label %ehcleanup

lpad3:                                            ; preds = %invoke.cont
  %6 = landingpad { ptr, i32 }
          cleanup
  %7 = extractvalue { ptr, i32 } %6, 0
  store ptr %7, ptr %exn.slot, align 8
  %8 = extractvalue { ptr, i32 } %6, 1
  store i32 %8, ptr %ehselector.slot, align 4
  %9 = getelementptr inbounds i8, ptr %this2, i64 192
  call void @_ZN5folly18DelayedDestructionD2Ev(ptr noundef nonnull align 8 dereferenceable(13) %9) #1
  br label %ehcleanup

ehcleanup:                                        ; preds = %lpad3, %lpad
  call void @_ZN5folly12AsyncTimeoutD2Ev(ptr noundef nonnull align 8 dereferenceable(192) %this2) #1
  br label %eh.resume

eh.resume:                                        ; preds = %ehcleanup
  %exn = load ptr, ptr %exn.slot, align 8
  %sel = load i32, ptr %ehselector.slot, align 4
  %lpad.val = insertvalue { ptr, i32 } poison, ptr %exn, 0
  %lpad.val5 = insertvalue { ptr, i32 } %lpad.val, i32 %sel, 1
  resume { ptr, i32 } %lpad.val5
}