; Function Attrs: mustprogress uwtable
define void @_ZN8proxygen15AsyncTimeoutSetC2EPN5folly14TimeoutManagerENS2_12InternalEnumENSt6chrono8durationIlSt5ratioILl1ELl1000EEEES9_(ptr noundef nonnull align 8 dereferenceable(249) %this, ptr noundef %timeoutManager, i32 noundef %internal, i64 %intervalMS.coerce, i64 %atMostEveryN.coerce) unnamed_addr #6 align 2 personality ptr @__gxx_personality_v0 {
invoke.cont:
  tail call void @_ZN5folly12AsyncTimeoutC2EPNS_14TimeoutManagerENS1_12InternalEnumE(ptr noundef nonnull align 8 dereferenceable(192) %this, ptr noundef %timeoutManager, i32 noundef %internal)
  %0 = getelementptr inbounds i8, ptr %this, i64 192
  %guardCount_.i.i = getelementptr inbounds i8, ptr %this, i64 200
  store i32 0, ptr %guardCount_.i.i, align 8
  %destroyPending_.i = getelementptr inbounds i8, ptr %this, i64 204
  store i8 0, ptr %destroyPending_.i, align 4
  store ptr getelementptr inbounds ({ [6 x ptr], [6 x ptr] }, ptr @_ZTVN8proxygen15AsyncTimeoutSetE, i64 0, i32 0, i64 2), ptr %this, align 8
  store ptr getelementptr inbounds ({ [6 x ptr], [6 x ptr] }, ptr @_ZTVN8proxygen15AsyncTimeoutSetE, i64 0, i32 1, i64 2), ptr %0, align 8
  %1 = load atomic i8, ptr @_ZGVZN8proxygen15getTimeoutClockEvE12timeoutClock acquire, align 8
  %guard.uninitialized.i = icmp eq i8 %1, 0
  br i1 %guard.uninitialized.i, label %init.check.i, label %invoke.cont4, !prof !4

init.check.i:                                     ; preds = %invoke.cont
  %2 = tail call i32 @__cxa_guard_acquire(ptr nonnull @_ZGVZN8proxygen15getTimeoutClockEvE12timeoutClock) #14
  %tobool.not.i = icmp eq i32 %2, 0
  br i1 %tobool.not.i, label %invoke.cont4, label %invoke.cont.i

invoke.cont.i:                                    ; preds = %init.check.i
  store ptr getelementptr inbounds ({ [5 x ptr] }, ptr @_ZTVN8proxygen18SimpleTimeoutClockE, i64 0, i32 0, i64 2), ptr @_ZZN8proxygen15getTimeoutClockEvE12timeoutClock, align 8
  tail call void @__cxa_guard_release(ptr nonnull @_ZGVZN8proxygen15getTimeoutClockEvE12timeoutClock) #14
  br label %invoke.cont4

invoke.cont4:                                     ; preds = %invoke.cont.i, %init.check.i, %invoke.cont
  %timeoutClock_ = getelementptr inbounds i8, ptr %this, i64 208
  store ptr @_ZZN8proxygen15getTimeoutClockEvE12timeoutClock, ptr %timeoutClock_, align 8
  %head_ = getelementptr inbounds i8, ptr %this, i64 216
  %interval_ = getelementptr inbounds i8, ptr %this, i64 232
  tail call void @llvm.memset.p0.i64(ptr noundef nonnull align 8 dereferenceable(16) %head_, i8 0, i64 16, i1 false)
  store i64 %intervalMS.coerce, ptr %interval_, align 8
  %atMostEveryN_ = getelementptr inbounds i8, ptr %this, i64 240
  store i64 %atMostEveryN.coerce, ptr %atMostEveryN_, align 8
  %inTimeoutExpired_ = getelementptr inbounds i8, ptr %this, i64 248
  store i8 0, ptr %inTimeoutExpired_, align 8
  ret void
}